; Function Attrs: nounwind uwtable
define internal void @Decompressor_dealloc(ptr noundef %0) #0 {
  %2 = getelementptr inbounds nuw i8, ptr %0, i64 200
  %3 = load ptr, ptr %2, align 8, !tbaa !75
  %.not = icmp eq ptr %3, null
  br i1 %.not, label %5, label %4

4:                                                ; preds = %1
  tail call void @PyMem_Free(ptr noundef nonnull %3) #10
  br label %5

5:                                                ; preds = %4, %1
  %6 = getelementptr inbounds nuw i8, ptr %0, i64 40
  tail call void @lzma_end(ptr noundef nonnull %6) #10
  %7 = getelementptr inbounds nuw i8, ptr %0, i64 184
  %8 = load ptr, ptr %7, align 8, !tbaa !15
  %.not16 = icmp eq ptr %8, null
  br i1 %.not16, label %Py_DECREF.exit19, label %9

9:                                                ; preds = %5
  store ptr null, ptr %7, align 8, !tbaa !15
  %10 = load i32, ptr %8, align 8, !tbaa !14
  %.not.i18 = icmp sgt i32 %10, -1
  br i1 %.not.i18, label %11, label %Py_DECREF.exit19

11:                                               ; preds = %9
  %12 = add nsw i32 %10, -1
  store i32 %12, ptr %8, align 8, !tbaa !14
  %13 = icmp eq i32 %12, 0
  br i1 %13, label %14, label %Py_DECREF.exit19

14:                                               ; preds = %11
  tail call void @_Py_Dealloc(ptr noundef nonnull %8) #10
  br label %Py_DECREF.exit19

Py_DECREF.exit19:                                 ; preds = %14, %11, %9, %5
  %15 = getelementptr inbounds nuw i8, ptr %0, i64 216
  %16 = load ptr, ptr %15, align 8, !tbaa !77
  %.not17 = icmp eq ptr %16, null
  br i1 %.not17, label %18, label %17

17:                                               ; preds = %Py_DECREF.exit19
  tail call void @PyThread_free_lock(ptr noundef nonnull %16) #10
  br label %18

18:                                               ; preds = %17, %Py_DECREF.exit19
  %19 = getelementptr i8, ptr %0, i64 8
  %.val = load ptr, ptr %19, align 8, !tbaa !44
  %20 = getelementptr inbounds nuw i8, ptr %.val, i64 320
  %21 = load ptr, ptr %20, align 8, !tbaa !45
  tail call void %21(ptr noundef nonnull %0) #10
  %22 = load i32, ptr %.val, align 8, !tbaa !14
  %.not.i = icmp sgt i32 %22, -1
  br i1 %.not.i, label %23, label %Py_DECREF.exit

23:                                               ; preds = %18
  %24 = add nsw i32 %22, -1
  store i32 %24, ptr %.val, align 8, !tbaa !14
  %25 = icmp eq i32 %24, 0
  br i1 %25, label %26, label %Py_DECREF.exit

26:                                               ; preds = %23
  tail call void @_Py_Dealloc(ptr noundef nonnull %.val) #10
  br label %Py_DECREF.exit

Py_DECREF.exit:                                   ; preds = %18, %23, %26
  ret void
}